; ModuleID = '15/1338.c'
source_filename = "15/1338.c"
target datalayout = "e-m:e-p270:32:32-p271:32:32-p272:64:64-i64:64-f80:128-n8:16:32:64-S128"
target triple = "x86_64-pc-linux-gnu"

@.str = private unnamed_addr constant [3 x i8] c"%d\00", align 1

; Function Attrs: noinline nounwind uwtable
define dso_local i32 @main() #0 {
  %1 = alloca i32, align 4
  %2 = alloca i32, align 4
  %3 = alloca i32, align 4
  %4 = alloca [100 x [100 x i32]], align 16
  %5 = alloca i32, align 4
  %6 = alloca i32, align 4
  %7 = alloca i32, align 4
  %8 = alloca i32, align 4
  %9 = alloca i32, align 4
  %10 = alloca i32, align 4
  %11 = alloca i32, align 4
  %12 = alloca i32, align 4
  store i32 0, i32* %1, align 4
  store i32 0, i32* %2, align 4
  %13 = call i32 (i8*, ...) @__isoc99_scanf(i8* getelementptr inbounds ([3 x i8], [3 x i8]* @.str, i64 0, i64 0), i32* %3)
  store i32 0, i32* %5, align 4
  br label %14

14:                                               ; preds = %35, %0
  %15 = load i32, i32* %5, align 4
  %16 = load i32, i32* %3, align 4
  %17 = icmp slt i32 %15, %16
  br i1 %17, label %18, label %38

18:                                               ; preds = %14
  store i32 0, i32* %6, align 4
  br label %19

19:                                               ; preds = %31, %18
  %20 = load i32, i32* %6, align 4
  %21 = load i32, i32* %3, align 4
  %22 = icmp slt i32 %20, %21
  br i1 %22, label %23, label %34

23:                                               ; preds = %19
  %24 = load i32, i32* %5, align 4
  %25 = sext i32 %24 to i64
  %26 = getelementptr inbounds [100 x [100 x i32]], [100 x [100 x i32]]* %4, i64 0, i64 %25
  %27 = load i32, i32* %6, align 4
  %28 = sext i32 %27 to i64
  %29 = getelementptr inbounds [100 x i32], [100 x i32]* %26, i64 0, i64 %28
  %30 = call i32 (i8*, ...) @__isoc99_scanf(i8* getelementptr inbounds ([3 x i8], [3 x i8]* @.str, i64 0, i64 0), i32* %29)
  br label %31

31:                                               ; preds = %23
  %32 = load i32, i32* %6, align 4
  %33 = add nsw i32 %32, 1
  store i32 %33, i32* %6, align 4
  br label %19

34:                                               ; preds = %19
  br label %35

35:                                               ; preds = %34
  %36 = load i32, i32* %5, align 4
  %37 = add nsw i32 %36, 1
  store i32 %37, i32* %5, align 4
  br label %14

38:                                               ; preds = %14
  store i32 0, i32* %5, align 4
  br label %39

39:                                               ; preds = %70, %38
  %40 = load i32, i32* %5, align 4
  %41 = load i32, i32* %3, align 4
  %42 = icmp slt i32 %40, %41
  br i1 %42, label %43, label %73

43:                                               ; preds = %39
  store i32 0, i32* %6, align 4
  br label %44

44:                                               ; preds = %61, %43
  %45 = load i32, i32* %6, align 4
  %46 = load i32, i32* %3, align 4
  %47 = icmp slt i32 %45, %46
  br i1 %47, label %48, label %64

48:                                               ; preds = %44
  %49 = load i32, i32* %5, align 4
  %50 = sext i32 %49 to i64
  %51 = getelementptr inbounds [100 x [100 x i32]], [100 x [100 x i32]]* %4, i64 0, i64 %50
  %52 = load i32, i32* %6, align 4
  %53 = sext i32 %52 to i64
  %54 = getelementptr inbounds [100 x i32], [100 x i32]* %51, i64 0, i64 %53
  %55 = load i32, i32* %54, align 4
  %56 = icmp eq i32 %55, 0
  br i1 %56, label %57, label %60

57:                                               ; preds = %48
  %58 = load i32, i32* %5, align 4
  store i32 %58, i32* %7, align 4
  %59 = load i32, i32* %6, align 4
  store i32 %59, i32* %11, align 4
  br label %64

60:                                               ; preds = %48
  br label %61

61:                                               ; preds = %60
  %62 = load i32, i32* %6, align 4
  %63 = add nsw i32 %62, 1
  store i32 %63, i32* %6, align 4
  br label %44

64:                                               ; preds = %57, %44
  %65 = load i32, i32* %6, align 4
  %66 = load i32, i32* %3, align 4
  %67 = icmp slt i32 %65, %66
  br i1 %67, label %68, label %69

68:                                               ; preds = %64
  br label %73

69:                                               ; preds = %64
  br label %70

70:                                               ; preds = %69
  %71 = load i32, i32* %5, align 4
  %72 = add nsw i32 %71, 1
  store i32 %72, i32* %5, align 4
  br label %39

73:                                               ; preds = %68, %39
  %74 = load i32, i32* %3, align 4
  %75 = sub nsw i32 %74, 1
  store i32 %75, i32* %5, align 4
  br label %76

76:                                               ; preds = %106, %73
  %77 = load i32, i32* %5, align 4
  %78 = icmp sge i32 %77, 0
  br i1 %78, label %79, label %109

79:                                               ; preds = %76
  %80 = load i32, i32* %3, align 4
  %81 = sub nsw i32 %80, 1
  store i32 %81, i32* %6, align 4
  br label %82

82:                                               ; preds = %98, %79
  %83 = load i32, i32* %6, align 4
  %84 = icmp sge i32 %83, 0
  br i1 %84, label %85, label %101

85:                                               ; preds = %82
  %86 = load i32, i32* %5, align 4
  %87 = sext i32 %86 to i64
  %88 = getelementptr inbounds [100 x [100 x i32]], [100 x [100 x i32]]* %4, i64 0, i64 %87
  %89 = load i32, i32* %6, align 4
  %90 = sext i32 %89 to i64
  %91 = getelementptr inbounds [100 x i32], [100 x i32]* %88, i64 0, i64 %90
  %92 = load i32, i32* %91, align 4
  %93 = icmp eq i32 %92, 0
  br i1 %93, label %94, label %97

94:                                               ; preds = %85
  %95 = load i32, i32* %5, align 4
  store i32 %95, i32* %8, align 4
  %96 = load i32, i32* %6, align 4
  store i32 %96, i32* %12, align 4
  br label %101

97:                                               ; preds = %85
  br label %98

98:                                               ; preds = %97
  %99 = load i32, i32* %6, align 4
  %100 = add nsw i32 %99, -1
  store i32 %100, i32* %6, align 4
  br label %82

101:                                              ; preds = %94, %82
  %102 = load i32, i32* %6, align 4
  %103 = icmp sge i32 %102, 0
  br i1 %103, label %104, label %105

104:                                              ; preds = %101
  br label %109

105:                                              ; preds = %101
  br label %106

106:                                              ; preds = %105
  %107 = load i32, i32* %5, align 4
  %108 = add nsw i32 %107, -1
  store i32 %108, i32* %5, align 4
  br label %76

109:                                              ; preds = %104, %76
  %110 = load i32, i32* %8, align 4
  %111 = load i32, i32* %7, align 4
  %112 = sub nsw i32 %110, %111
  %113 = add nsw i32 %112, 1
  store i32 %113, i32* %9, align 4
  %114 = load i32, i32* %12, align 4
  %115 = load i32, i32* %11, align 4
  %116 = sub nsw i32 %114, %115
  %117 = add nsw i32 %116, 1
  store i32 %117, i32* %10, align 4
  %118 = load i32, i32* %9, align 4
  %119 = sub nsw i32 %118, 2
  %120 = load i32, i32* %10, align 4
  %121 = sub nsw i32 %120, 2
  %122 = mul nsw i32 %119, %121
  store i32 %122, i32* %2, align 4
  %123 = load i32, i32* %2, align 4
  %124 = call i32 (i8*, ...) @printf(i8* getelementptr inbounds ([3 x i8], [3 x i8]* @.str, i64 0, i64 0), i32 %123)
  %125 = load i32, i32* %1, align 4
  ret i32 %125
}

declare dso_local i32 @__isoc99_scanf(i8*, ...) #1

declare dso_local i32 @printf(i8*, ...) #1


!llvm.module.flags = !{!0}
!llvm.ident = !{!1}

!0 = !{i32 1, !"wchar_size", i32 4}
!1 = !{!"clang version 10.0.0-4ubuntu1 "}
